target datalayout = "e-m:e-p270:32:32-p271:32:32-p272:64:64-i64:64-i128:128-f80:128-n8:16:32:64-S128"
target triple = "x86_64-unknown-linux-gnu"

; Function Attrs: nounwind uwtable
define internal i32 @arena_i_decay_ctl(ptr noundef %tsd, ptr noundef %mib, i64 noundef %miblen, ptr noundef %oldp, ptr noundef %oldlenp, ptr noundef %newp, i64 noundef %newlen) #0 {
entry:
  %tsd.addr.i = alloca ptr, align 8
  %tsd.addr = alloca ptr, align 8
  %mib.addr = alloca ptr, align 8
  %miblen.addr = alloca i64, align 8
  %oldp.addr = alloca ptr, align 8
  %oldlenp.addr = alloca ptr, align 8
  %newp.addr = alloca ptr, align 8
  %newlen.addr = alloca i64, align 8
  %ret = alloca i32, align 4
  %arena_ind = alloca i32, align 4
  store ptr %tsd, ptr %tsd.addr, align 8
  store ptr %mib, ptr %mib.addr, align 8
  store i64 %miblen, ptr %miblen.addr, align 8
  store ptr %oldp, ptr %oldp.addr, align 8
  store ptr %oldlenp, ptr %oldlenp.addr, align 8
  store ptr %newp, ptr %newp.addr, align 8
  store i64 %newlen, ptr %newlen.addr, align 8
  br label %do.body

do.body:                                          ; preds = %entry
  %0 = load ptr, ptr %oldp.addr, align 8
  %cmp = icmp ne ptr %0, null
  br i1 %cmp, label %if.then, label %lor.lhs.false

lor.lhs.false:                                    ; preds = %do.body
  %1 = load ptr, ptr %oldlenp.addr, align 8
  %cmp1 = icmp ne ptr %1, null
  br i1 %cmp1, label %if.then, label %lor.lhs.false2

lor.lhs.false2:                                   ; preds = %lor.lhs.false
  %2 = load ptr, ptr %newp.addr, align 8
  %cmp3 = icmp ne ptr %2, null
  br i1 %cmp3, label %if.then, label %lor.lhs.false4

lor.lhs.false4:                                   ; preds = %lor.lhs.false2
  %3 = load i64, ptr %newlen.addr, align 8
  %cmp5 = icmp ne i64 %3, 0
  br i1 %cmp5, label %if.then, label %if.end

if.then:                                          ; preds = %lor.lhs.false4, %lor.lhs.false2, %lor.lhs.false, %do.body
  store i32 1, ptr %ret, align 4
  br label %label_return

if.end:                                           ; preds = %lor.lhs.false4
  br label %do.end

do.end:                                           ; preds = %if.end
  br label %do.body6

do.body6:                                         ; preds = %do.end
  %4 = load ptr, ptr %mib.addr, align 8
  %arrayidx = getelementptr inbounds i64, ptr %4, i64 1
  %5 = load i64, ptr %arrayidx, align 8
  %cmp7 = icmp ugt i64 %5, 4294967295
  br i1 %cmp7, label %if.then8, label %if.end9

if.then8:                                         ; preds = %do.body6
  store i32 14, ptr %ret, align 4
  br label %label_return

if.end9:                                          ; preds = %do.body6
  %6 = load ptr, ptr %mib.addr, align 8
  %arrayidx10 = getelementptr inbounds i64, ptr %6, i64 1
  %7 = load i64, ptr %arrayidx10, align 8
  %conv = trunc i64 %7 to i32
  store i32 %conv, ptr %arena_ind, align 4
  br label %do.end11

do.end11:                                         ; preds = %if.end9
  %8 = load ptr, ptr %tsd.addr, align 8
  store ptr %8, ptr %tsd.addr.i, align 8
  %9 = load ptr, ptr %tsd.addr.i, align 8
  %10 = load i32, ptr %arena_ind, align 4
  call void @arena_i_decay(ptr noundef %9, i32 noundef %10, i1 noundef zeroext false)
  store i32 0, ptr %ret, align 4
  br label %label_return

label_return:                                     ; preds = %do.end11, %if.then8, %if.then
  %11 = load i32, ptr %ret, align 4
  ret i32 %11
}