; Function Attrs: nounwind uwtable
define internal noundef i32 @arena_i_decay_ctl(ptr noundef %tsd, ptr nocapture noundef readonly %mib, i64 %miblen, ptr noundef readnone %oldp, ptr noundef readnone %oldlenp, ptr noundef readnone %newp, i64 noundef %newlen) #0 {
entry:
  %cmp = icmp ne ptr %oldp, null
  %cmp1 = icmp ne ptr %oldlenp, null
  %or.cond = or i1 %cmp, %cmp1
  %cmp3 = icmp ne ptr %newp, null
  %or.cond1 = or i1 %or.cond, %cmp3
  %cmp5 = icmp ne i64 %newlen, 0
  %or.cond2 = or i1 %or.cond1, %cmp5
  br i1 %or.cond2, label %label_return, label %do.body6

do.body6:                                         ; preds = %entry
  %arrayidx = getelementptr inbounds i8, ptr %mib, i64 8
  %0 = load i64, ptr %arrayidx, align 8
  %cmp7 = icmp ugt i64 %0, 4294967295
  br i1 %cmp7, label %label_return, label %if.end9

if.end9:                                          ; preds = %do.body6
  %conv = trunc i64 %0 to i32
  tail call fastcc void @arena_i_decay(ptr noundef %tsd, i32 noundef %conv, i1 noundef zeroext false)
  br label %label_return

label_return:                                     ; preds = %do.body6, %entry, %if.end9
  %ret.0 = phi i32 [ 0, %if.end9 ], [ 1, %entry ], [ 14, %do.body6 ]
  ret i32 %ret.0
}